Certificate:
    Data:
        Version: 3 (0x2)
        Serial Number: 1 (0x1)
    Signature Algorithm: sha256WithRSAEncryption
        Issuer: C=CN, ST=SH, L=JS, O=Ranger, OU=dev, CN=ICA/emailAddress=2394407495@qq.com
        Validity
            Not Before: Sep 16 07:25:49 2018 GMT
            Not After : Sep 16 07:25:49 2019 GMT
        Subject: C=CN, ST=SH, O=Ranger, OU=dev, CN=IServer/emailAddress=2394407495@qq.com
        Subject Public Key Info:
            Public Key Algorithm: rsaEncryption
                Public-Key: (4096 bit)
                Modulus:
                    00:ca:aa:43:eb:45:ed:7b:40:f5:72:68:fa:d5:b4:
                    e2:0a:05:cb:5c:70:43:28:73:b2:ff:21:8e:2d:57:
                    e6:e0:3c:b6:83:8a:95:0a:42:07:3b:b1:05:20:62:
                    a3:fa:6e:36:36:d1:1e:38:87:da:3c:fe:9b:d6:7f:
                    a0:de:c9:d5:ff:6b:0c:1f:41:b0:b8:0c:4f:46:aa:
                    da:93:b9:b4:27:61:3c:1f:f0:05:4e:d5:f8:59:ac:
                    9d:2a:e0:6e:c5:93:d4:d3:b0:d5:b0:ec:fe:93:74:
                    64:33:09:5f:61:f3:3d:6d:8a:54:6c:05:d1:06:9b:
                    4f:5a:e2:62:47:a8:bd:3c:40:50:e8:73:59:97:94:
                    f8:20:0a:d5:96:72:15:3c:6e:c7:86:7b:aa:82:75:
                    3a:31:cf:df:4c:4c:76:da:63:a5:93:93:56:8e:36:
                    d3:c9:6a:de:36:d4:3f:d3:da:4f:bc:e2:b3:0f:6a:
                    fe:52:bf:04:3d:46:50:c9:5c:b4:7b:8f:af:98:58:
                    3e:6a:81:4c:7c:35:ca:d7:c1:ba:4f:82:2c:10:32:
                    86:9a:dc:e1:59:0f:d2:ff:41:1c:02:0f:55:5d:dc:
                    12:bb:e8:03:b2:1d:91:aa:01:1b:43:87:07:f6:b8:
                    07:a6:e4:79:fe:7a:43:42:08:23:8f:b6:f0:95:da:
                    05:46:d0:cc:8c:6c:d9:c9:3b:70:40:ae:42:27:20:
                    23:e1:55:36:a7:1f:ac:a5:eb:60:b7:83:34:27:b4:
                    5d:65:86:2b:3d:96:41:58:4a:95:e1:f8:dc:ac:97:
                    cf:8a:33:61:d3:f2:80:72:8d:19:9b:42:9e:0b:b3:
                    6d:7f:e7:59:0a:96:d6:d9:c9:c8:20:ec:89:11:e3:
                    a9:05:03:05:9d:ce:ac:79:e3:37:12:c4:ba:3e:d7:
                    98:d4:5c:0f:99:75:94:a8:2e:8b:4c:f7:5d:ca:90:
                    e7:82:24:8e:74:ab:bd:12:fb:3b:9a:3b:f3:ae:65:
                    47:38:15:dd:5e:a3:d6:b6:4b:03:00:bc:eb:e8:22:
                    f7:f9:63:88:64:62:df:fb:ca:a1:5f:44:2e:cb:fe:
                    fa:cc:44:0e:e0:d8:8f:bc:a4:96:84:f7:1d:8f:ba:
                    9c:c9:27:bc:93:be:23:47:f1:37:61:9f:af:6c:96:
                    97:63:fe:ae:12:c3:a2:68:13:57:fb:55:17:ca:b6:
                    65:f7:52:87:5d:3b:cb:25:11:4d:c0:31:7b:9a:e9:
                    3e:e6:9b:2f:d6:97:ed:9e:1a:90:c2:f8:86:35:9c:
                    4f:a6:57:18:74:4b:dc:48:e1:ec:06:e9:4d:d0:99:
                    ce:62:1c:f0:3d:ea:23:24:52:bf:8e:d5:5f:3a:e8:
                    97:6e:a1
                Exponent: 65537 (0x10001)
        X509v3 extensions:
            X509v3 Basic Constraints: 
                CA:FALSE
            Netscape Comment: 
                OpenSSL Generated Certificate
            X509v3 Subject Key Identifier: 
                76:E1:6D:69:8A:22:21:FA:21:85:0A:EC:A9:E8:EC:0A:5D:C4:A2:A9
            X509v3 Authority Key Identifier: 
                keyid:C2:72:87:91:F7:78:2B:16:24:9D:65:7F:13:85:90:B3:AC:AE:29:3D

    Signature Algorithm: sha256WithRSAEncryption
         52:6c:41:9e:47:64:c9:ed:11:56:3d:a7:c9:74:12:c4:20:2b:
         83:ef:d9:79:6d:3c:86:ff:56:7b:6b:17:4c:1f:26:1f:75:7e:
         9e:04:81:01:7a:bc:11:d1:4c:26:15:b6:44:ab:92:d5:8e:03:
         de:13:4a:79:3f:39:1a:4f:38:ba:8e:fb:c3:cc:29:52:a4:c9:
         95:af:20:9d:bf:5c:39:82:40:9f:d5:f3:fb:9b:39:2d:53:6a:
         0c:86:7e:ee:85:5d:ba:e6:1a:7e:ee:b1:b2:80:20:1c:23:1f:
         fd:ae:f7:8f:7f:74:ca:5d:a9:e0:77:8e:6b:71:59:c4:c1:a5:
         ac:f8:19:5b:70:19:ec:b2:24:77:1a:5d:e6:0d:72:10:97:09:
         0a:c3:fb:e4:9d:e6:50:66:45:ea:b1:9a:ff:f6:37:19:69:d1:
         98:e5:c4:8a:4d:25:60:59:55:23:e3:81:3b:af:be:be:4b:1b:
         85:f8:f0:aa:72:7e:a0:4c:60:55:bd:b0:6a:ac:15:e5:b0:4c:
         d3:4e:a6:ff:d8:bc:ae:8c:ea:46:ca:d1:0f:06:90:f2:ea:f5:
         72:8a:1c:3d:d9:3b:82:fd:a1:b9:4d:e6:40:49:ee:f9:66:e1:
         c6:c7:c9:d7:b6:d8:26:20:a4:42:96:15:0b:66:af:47:80:68:
         14:28:d0:aa
-----BEGIN CERTIFICATE-----
MIIE2TCCA8GgAwIBAgIBATANBgkqhkiG9w0BAQsFADB2MQswCQYDVQQGEwJDTjEL
MAkGA1UECAwCU0gxCzAJBgNVBAcMAkpTMQ8wDQYDVQQKDAZSYW5nZXIxDDAKBgNV
BAsMA2RldjEMMAoGA1UEAwwDSUNBMSAwHgYJKoZIhvcNAQkBFhEyMzk0NDA3NDk1
QHFxLmNvbTAeFw0xODA5MTYwNzI1NDlaFw0xOTA5MTYwNzI1NDlaMG0xCzAJBgNV
BAYTAkNOMQswCQYDVQQIDAJTSDEPMA0GA1UECgwGUmFuZ2VyMQwwCgYDVQQLDANk
ZXYxEDAOBgNVBAMMB0lTZXJ2ZXIxIDAeBgkqhkiG9w0BCQEWETIzOTQ0MDc0OTVA
cXEuY29tMIICIjANBgkqhkiG9w0BAQEFAAOCAg8AMIICCgKCAgEAyqpD60Xte0D1
cmj61bTiCgXLXHBDKHOy/yGOLVfm4Dy2g4qVCkIHO7EFIGKj+m42NtEeOIfaPP6b
1n+g3snV/2sMH0GwuAxPRqrak7m0J2E8H/AFTtX4WaydKuBuxZPU07DVsOz+k3Rk
MwlfYfM9bYpUbAXRBptPWuJiR6i9PEBQ6HNZl5T4IArVlnIVPG7HhnuqgnU6Mc/f
TEx22mOlk5NWjjbTyWreNtQ/09pPvOKzD2r+Ur8EPUZQyVy0e4+vmFg+aoFMfDXK
18G6T4IsEDKGmtzhWQ/S/0EcAg9VXdwSu+gDsh2RqgEbQ4cH9rgHpuR5/npDQggj
j7bwldoFRtDMjGzZyTtwQK5CJyAj4VU2px+spetgt4M0J7RdZYYrPZZBWEqV4fjc
rJfPijNh0/KAco0Zm0KeC7Ntf+dZCpbW2cnIIOyJEeOpBQMFnc6seeM3EsS6PteY
1FwPmXWUqC6LTPddypDngiSOdKu9Evs7mjvzrmVHOBXdXqPWtksDALzr6CL3+WOI
ZGLf+8qhX0Quy/76zEQO4NiPvKSWhPcdj7qcySe8k74jR/E3YZ+vbJaXY/6uEsOi
aBNX+1UXyrZl91KHXTvLJRFNwDF7muk+5psv1pftnhqQwviGNZxPplcYdEvcSOHs
BulN0JnOYhzwPeojJFK/jtVfOuiXbqECAwEAAaN7MHkwCQYDVR0TBAIwADAsBglg
hkgBhvhCAQ0EHxYdT3BlblNTTCBHZW5lcmF0ZWQgQ2VydGlmaWNhdGUwHQYDVR0O
BBYEFHbhbWmKIiH6IYUK7Kno7ApdxKKpMB8GA1UdIwQYMBaAFMJyh5H3eCsWJJ1l
fxOFkLOsrik9MA0GCSqGSIb3DQEBCwUAA4IBAQBSbEGeR2TJ7RFWPafJdBLEICuD
79l5bTyG/1Z7axdMHyYfdX6eBIEBerwR0UwmFbZEq5LVjgPeE0p5PzkaTzi6jvvD
zClSpMmVryCdv1w5gkCf1fP7mzktU2oMhn7uhV265hp+7rGygCAcIx/9rvePf3TK
Xangd45rcVnEwaWs+BlbcBnssiR3Gl3mDXIQlwkKw/vkneZQZkXqsZr/9jcZadGY
5cSKTSVgWVUj44E7r76+SxuF+PCqcn6gTGBVvbBqrBXlsEzTTqb/2LyujOpGytEP
BpDy6vVyihw92TuC/aG5TeZASe75ZuHGx8nXttgmIKRClhULZq9HgGgUKNCq
-----END CERTIFICATE-----
